target datalayout = "e-m:e-p270:32:32-p271:32:32-p272:64:64-i64:64-i128:128-f80:128-n8:16:32:64-S128"
target triple = "x86_64-pc-linux-gnu"

%struct.Vec_Int_t_ = type { i32, i32, ptr }
%struct.Fx_Man_t_ = type { ptr, i32, i32, ptr, ptr, ptr, ptr, ptr, ptr, ptr, ptr, ptr, ptr, ptr, ptr, ptr, i64, i32, i32, i32, i32, i32, i32, i32, [3 x i32] }

; Function Attrs: inlinehint nounwind uwtable
define internal ptr @Vec_IntAlloc(i32 noundef %0) #2 {
  %2 = alloca i32, align 4
  %3 = alloca ptr, align 8
  store i32 %0, ptr %2, align 4, !tbaa !10
  call void @llvm.lifetime.start.p0(i64 8, ptr %3) #13
  %4 = call noalias ptr @malloc(i64 noundef 16) #14
  store ptr %4, ptr %3, align 8, !tbaa !32
  %5 = load i32, ptr %2, align 4, !tbaa !10
  %6 = icmp sgt i32 %5, 0
  br i1 %6, label %7, label %11

7:                                                ; preds = %1
  %8 = load i32, ptr %2, align 4, !tbaa !10
  %9 = icmp slt i32 %8, 16
  br i1 %9, label %10, label %11

10:                                               ; preds = %7
  store i32 16, ptr %2, align 4, !tbaa !10
  br label %11

11:                                               ; preds = %10, %7, %1
  %12 = load ptr, ptr %3, align 8, !tbaa !32
  %13 = getelementptr inbounds nuw %struct.Vec_Int_t_, ptr %12, i32 0, i32 1
  store i32 0, ptr %13, align 4, !tbaa !44
  %14 = load i32, ptr %2, align 4, !tbaa !10
  %15 = load ptr, ptr %3, align 8, !tbaa !32
  %16 = getelementptr inbounds nuw %struct.Vec_Int_t_, ptr %15, i32 0, i32 0
  store i32 %14, ptr %16, align 8, !tbaa !45
  %17 = load ptr, ptr %3, align 8, !tbaa !32
  %18 = getelementptr inbounds nuw %struct.Vec_Int_t_, ptr %17, i32 0, i32 0
  %19 = load i32, ptr %18, align 8, !tbaa !45
  %20 = icmp ne i32 %19, 0
  br i1 %20, label %21, label %28

21:                                               ; preds = %11
  %22 = load ptr, ptr %3, align 8, !tbaa !32
  %23 = getelementptr inbounds nuw %struct.Vec_Int_t_, ptr %22, i32 0, i32 0
  %24 = load i32, ptr %23, align 8, !tbaa !45
  %25 = sext i32 %24 to i64
  %26 = mul i64 4, %25
  %27 = call noalias ptr @malloc(i64 noundef %26) #14
  br label %29

28:                                               ; preds = %11
  br label %29

29:                                               ; preds = %28, %21
  %30 = phi ptr [ %27, %21 ], [ null, %28 ]
  %31 = load ptr, ptr %3, align 8, !tbaa !32
  %32 = getelementptr inbounds nuw %struct.Vec_Int_t_, ptr %31, i32 0, i32 2
  store ptr %30, ptr %32, align 8, !tbaa !46
  %33 = load ptr, ptr %3, align 8, !tbaa !32
  call void @llvm.lifetime.end.p0(i64 8, ptr %3) #13
  ret ptr %33
}

; Function Attrs: nounwind uwtable
define ptr @Fx_ManStart(ptr noundef %0) #0 {
  %2 = alloca ptr, align 8
  %3 = alloca ptr, align 8
  store ptr %0, ptr %2, align 8, !tbaa !8
  call void @llvm.lifetime.start.p0(i64 8, ptr %3) #13
  %4 = call noalias ptr @calloc(i64 noundef 1, i64 noundef 168) #15
  store ptr %4, ptr %3, align 8, !tbaa !74
  %5 = load ptr, ptr %2, align 8, !tbaa !8
  %6 = load ptr, ptr %3, align 8, !tbaa !74
  %7 = getelementptr inbounds nuw %struct.Fx_Man_t_, ptr %6, i32 0, i32 0
  store ptr %5, ptr %7, align 8, !tbaa !85
  %8 = call ptr @Vec_IntAlloc(i32 noundef 100)
  %9 = load ptr, ptr %3, align 8, !tbaa !74
  %10 = getelementptr inbounds nuw %struct.Fx_Man_t_, ptr %9, i32 0, i32 10
  store ptr %8, ptr %10, align 8, !tbaa !86
  %11 = call ptr @Vec_IntAlloc(i32 noundef 100)
  %12 = load ptr, ptr %3, align 8, !tbaa !74
  %13 = getelementptr inbounds nuw %struct.Fx_Man_t_, ptr %12, i32 0, i32 11
  store ptr %11, ptr %13, align 8, !tbaa !87
  %14 = call ptr @Vec_IntAlloc(i32 noundef 100)
  %15 = load ptr, ptr %3, align 8, !tbaa !74
  %16 = getelementptr inbounds nuw %struct.Fx_Man_t_, ptr %15, i32 0, i32 12
  store ptr %14, ptr %16, align 8, !tbaa !88
  %17 = call ptr @Vec_IntAlloc(i32 noundef 100)
  %18 = load ptr, ptr %3, align 8, !tbaa !74
  %19 = getelementptr inbounds nuw %struct.Fx_Man_t_, ptr %18, i32 0, i32 13
  store ptr %17, ptr %19, align 8, !tbaa !89
  %20 = call ptr @Vec_IntAlloc(i32 noundef 100)
  %21 = load ptr, ptr %3, align 8, !tbaa !74
  %22 = getelementptr inbounds nuw %struct.Fx_Man_t_, ptr %21, i32 0, i32 14
  store ptr %20, ptr %22, align 8, !tbaa !90
  %23 = call ptr @Vec_IntAlloc(i32 noundef 100)
  %24 = load ptr, ptr %3, align 8, !tbaa !74
  %25 = getelementptr inbounds nuw %struct.Fx_Man_t_, ptr %24, i32 0, i32 15
  store ptr %23, ptr %25, align 8, !tbaa !91
  %26 = load ptr, ptr %3, align 8, !tbaa !74
  call void @llvm.lifetime.end.p0(i64 8, ptr %3) #13
  ret ptr %26
}