; Function Attrs: mustprogress nofree nounwind willreturn memory(write, argmem: none, inaccessiblemem: readwrite) uwtable
define noalias noundef ptr @Fx_ManStart(ptr noundef %0) local_unnamed_addr #5 {
  %2 = tail call noalias dereferenceable_or_null(168) ptr @calloc(i64 noundef 1, i64 noundef 168) #27
  store ptr %0, ptr %2, align 8, !tbaa !96
  %3 = tail call noalias dereferenceable_or_null(16) ptr @malloc(i64 noundef 16) #26
  %4 = getelementptr inbounds nuw i8, ptr %3, i64 4
  store i32 0, ptr %4, align 4, !tbaa !36
  store i32 100, ptr %3, align 8, !tbaa !37
  %5 = tail call noalias dereferenceable_or_null(400) ptr @malloc(i64 noundef 400) #26
  %6 = getelementptr inbounds nuw i8, ptr %3, i64 8
  store ptr %5, ptr %6, align 8, !tbaa !38
  %7 = getelementptr inbounds nuw i8, ptr %2, i64 72
  store ptr %3, ptr %7, align 8, !tbaa !97
  %8 = tail call noalias dereferenceable_or_null(16) ptr @malloc(i64 noundef 16) #26
  %9 = getelementptr inbounds nuw i8, ptr %8, i64 4
  store i32 0, ptr %9, align 4, !tbaa !36
  store i32 100, ptr %8, align 8, !tbaa !37
  %10 = tail call noalias dereferenceable_or_null(400) ptr @malloc(i64 noundef 400) #26
  %11 = getelementptr inbounds nuw i8, ptr %8, i64 8
  store ptr %10, ptr %11, align 8, !tbaa !38
  %12 = getelementptr inbounds nuw i8, ptr %2, i64 80
  store ptr %8, ptr %12, align 8, !tbaa !98
  %13 = tail call noalias dereferenceable_or_null(16) ptr @malloc(i64 noundef 16) #26
  %14 = getelementptr inbounds nuw i8, ptr %13, i64 4
  store i32 0, ptr %14, align 4, !tbaa !36
  store i32 100, ptr %13, align 8, !tbaa !37
  %15 = tail call noalias dereferenceable_or_null(400) ptr @malloc(i64 noundef 400) #26
  %16 = getelementptr inbounds nuw i8, ptr %13, i64 8
  store ptr %15, ptr %16, align 8, !tbaa !38
  %17 = getelementptr inbounds nuw i8, ptr %2, i64 88
  store ptr %13, ptr %17, align 8, !tbaa !99
  %18 = tail call noalias dereferenceable_or_null(16) ptr @malloc(i64 noundef 16) #26
  %19 = getelementptr inbounds nuw i8, ptr %18, i64 4
  store i32 0, ptr %19, align 4, !tbaa !36
  store i32 100, ptr %18, align 8, !tbaa !37
  %20 = tail call noalias dereferenceable_or_null(400) ptr @malloc(i64 noundef 400) #26
  %21 = getelementptr inbounds nuw i8, ptr %18, i64 8
  store ptr %20, ptr %21, align 8, !tbaa !38
  %22 = getelementptr inbounds nuw i8, ptr %2, i64 96
  store ptr %18, ptr %22, align 8, !tbaa !100
  %23 = tail call noalias dereferenceable_or_null(16) ptr @malloc(i64 noundef 16) #26
  %24 = getelementptr inbounds nuw i8, ptr %23, i64 4
  store i32 0, ptr %24, align 4, !tbaa !36
  store i32 100, ptr %23, align 8, !tbaa !37
  %25 = tail call noalias dereferenceable_or_null(400) ptr @malloc(i64 noundef 400) #26
  %26 = getelementptr inbounds nuw i8, ptr %23, i64 8
  store ptr %25, ptr %26, align 8, !tbaa !38
  %27 = getelementptr inbounds nuw i8, ptr %2, i64 104
  store ptr %23, ptr %27, align 8, !tbaa !101
  %28 = tail call noalias dereferenceable_or_null(16) ptr @malloc(i64 noundef 16) #26
  %29 = getelementptr inbounds nuw i8, ptr %28, i64 4
  store i32 0, ptr %29, align 4, !tbaa !36
  store i32 100, ptr %28, align 8, !tbaa !37
  %30 = tail call noalias dereferenceable_or_null(400) ptr @malloc(i64 noundef 400) #26
  %31 = getelementptr inbounds nuw i8, ptr %28, i64 8
  store ptr %30, ptr %31, align 8, !tbaa !38
  %32 = getelementptr inbounds nuw i8, ptr %2, i64 112
  store ptr %28, ptr %32, align 8, !tbaa !102
  ret ptr %2
}